target datalayout = "e-m:e-p270:32:32-p271:32:32-p272:64:64-i64:64-i128:128-f80:128-n8:16:32:64-S128"
target triple = "x86_64-pc-linux-gnu"

%"class.std::ios_base" = type { ptr, i64, i64, i32, i32, i32, ptr, %"struct.std::ios_base::_Words", [8 x %"struct.std::ios_base::_Words"], i32, ptr, %"class.std::locale" }
%"struct.std::ios_base::_Words" = type { ptr, i64 }
%"class.std::locale" = type { ptr }
%struct.TGAImage = type { i32, i32, i8, %"class.std::vector" }
%"class.std::vector" = type { %"struct.std::_Vector_base" }
%"struct.std::_Vector_base" = type { %"struct.std::_Vector_base<unsigned char, std::allocator<unsigned char>>::_Vector_impl" }
%"struct.std::_Vector_base<unsigned char, std::allocator<unsigned char>>::_Vector_impl" = type { %"struct.std::_Vector_base<unsigned char, std::allocator<unsigned char>>::_Vector_impl_data" }
%"struct.std::_Vector_base<unsigned char, std::allocator<unsigned char>>::_Vector_impl_data" = type { ptr, ptr, ptr }

; Function Attrs: mustprogress nounwind uwtable
define linkonce_odr dso_local noundef ptr @_ZNKSt6vectorIhSaIhEE11_M_data_ptrIhEEPT_S4_(ptr noundef nonnull align 8 dereferenceable(24) %0, ptr noundef %1) #6 comdat align 2 {
  %3 = alloca ptr, align 8
  %4 = alloca ptr, align 8
  store ptr %0, ptr %3, align 8, !tbaa !24
  store ptr %1, ptr %4, align 8, !tbaa !28
  %5 = load ptr, ptr %4, align 8, !tbaa !28
  ret ptr %5
}

; Function Attrs: mustprogress nounwind uwtable
define available_externally noundef i32 @_ZNKSt9basic_iosIcSt11char_traitsIcEE7rdstateEv(ptr noundef nonnull align 8 dereferenceable(264) %0) #6 align 2 {
  %2 = alloca ptr, align 8
  store ptr %0, ptr %2, align 8, !tbaa !72
  %3 = load ptr, ptr %2, align 8
  %4 = getelementptr inbounds nuw %"class.std::ios_base", ptr %3, i32 0, i32 5
  %5 = load i32, ptr %4, align 8, !tbaa !118
  ret i32 %5
}

; Function Attrs: mustprogress nounwind uwtable
define linkonce_odr dso_local noundef ptr @_ZNKSt6vectorIhSaIhEE4dataEv(ptr noundef nonnull align 8 dereferenceable(24) %0) #6 comdat align 2 {
  %2 = alloca ptr, align 8
  store ptr %0, ptr %2, align 8, !tbaa !24
  %3 = load ptr, ptr %2, align 8
  %4 = getelementptr inbounds nuw %"struct.std::_Vector_base", ptr %3, i32 0, i32 0
  %5 = getelementptr inbounds nuw %"struct.std::_Vector_base<unsigned char, std::allocator<unsigned char>>::_Vector_impl_data", ptr %4, i32 0, i32 0
  %6 = load ptr, ptr %5, align 8, !tbaa !33
  %7 = call noundef ptr @_ZNKSt6vectorIhSaIhEE11_M_data_ptrIhEEPT_S4_(ptr noundef nonnull align 8 dereferenceable(24) %3, ptr noundef %6) #3
  ret ptr %7
}

; Function Attrs: mustprogress nounwind uwtable
define available_externally noundef zeroext i1 @_ZNKSt9basic_iosIcSt11char_traitsIcEE4goodEv(ptr noundef nonnull align 8 dereferenceable(264) %0) #6 align 2 {
  %2 = alloca ptr, align 8
  store ptr %0, ptr %2, align 8, !tbaa !72
  %3 = load ptr, ptr %2, align 8
  %4 = call noundef i32 @_ZNKSt9basic_iosIcSt11char_traitsIcEE7rdstateEv(ptr noundef nonnull align 8 dereferenceable(264) %3)
  %5 = icmp eq i32 %4, 0
  ret i1 %5
}

; Function Attrs: mustprogress nounwind uwtable
define linkonce_odr dso_local noundef nonnull align 1 dereferenceable(1) ptr @_ZNKSt6vectorIhSaIhEEixEm(ptr noundef nonnull align 8 dereferenceable(24) %0, i64 noundef %1) #6 comdat align 2 {
  %3 = alloca ptr, align 8
  %4 = alloca i64, align 8
  store ptr %0, ptr %3, align 8, !tbaa !24
  store i64 %1, ptr %4, align 8, !tbaa !26
  %5 = load ptr, ptr %3, align 8
  %6 = getelementptr inbounds nuw %"struct.std::_Vector_base", ptr %5, i32 0, i32 0
  %7 = getelementptr inbounds nuw %"struct.std::_Vector_base<unsigned char, std::allocator<unsigned char>>::_Vector_impl_data", ptr %6, i32 0, i32 0
  %8 = load ptr, ptr %7, align 8, !tbaa !33
  %9 = load i64, ptr %4, align 8, !tbaa !26
  %10 = getelementptr inbounds nuw i8, ptr %8, i64 %9
  ret ptr %10
}

; Function Attrs: mustprogress uwtable
define dso_local noundef zeroext i1 @_ZNK8TGAImage15unload_rle_dataERSt14basic_ofstreamIcSt11char_traitsIcEE(ptr noundef nonnull align 8 dereferenceable(40) %0, ptr noundef nonnull align 8 dereferenceable(248) %1) #4 align 2 {
  %3 = alloca i1, align 1
  %4 = alloca ptr, align 8
  %5 = alloca ptr, align 8
  %6 = alloca i8, align 1
  %7 = alloca i64, align 8
  %8 = alloca i64, align 8
  %9 = alloca i64, align 8
  %10 = alloca i64, align 8
  %11 = alloca i8, align 1
  %12 = alloca i8, align 1
  %13 = alloca i8, align 1
  %14 = alloca i32, align 4
  %15 = alloca i32, align 4
  store ptr %0, ptr %4, align 8, !tbaa !5
  store ptr %1, ptr %5, align 8, !tbaa !128
  %16 = load ptr, ptr %4, align 8
  call void @llvm.lifetime.start.p0(i64 1, ptr %6) #3
  store i8 -128, ptr %6, align 1, !tbaa !21
  call void @llvm.lifetime.start.p0(i64 8, ptr %7) #3
  %17 = getelementptr inbounds nuw %struct.TGAImage, ptr %16, i32 0, i32 0
  %18 = load i32, ptr %17, align 8, !tbaa !12
  %19 = getelementptr inbounds nuw %struct.TGAImage, ptr %16, i32 0, i32 1
  %20 = load i32, ptr %19, align 4, !tbaa !19
  %21 = mul nsw i32 %18, %20
  %22 = sext i32 %21 to i64
  store i64 %22, ptr %7, align 8, !tbaa !26
  call void @llvm.lifetime.start.p0(i64 8, ptr %8) #3
  store i64 0, ptr %8, align 8, !tbaa !26
  br label %23

23:                                               ; preds = %186, %2
  %24 = load i64, ptr %8, align 8, !tbaa !26
  %25 = load i64, ptr %7, align 8, !tbaa !26
  %26 = icmp ult i64 %24, %25
  br i1 %26, label %27, label %187

27:                                               ; preds = %23
  call void @llvm.lifetime.start.p0(i64 8, ptr %9) #3
  %28 = load i64, ptr %8, align 8, !tbaa !26
  %29 = getelementptr inbounds nuw %struct.TGAImage, ptr %16, i32 0, i32 2
  %30 = load i8, ptr %29, align 8, !tbaa !20
  %31 = zext i8 %30 to i64
  %32 = mul i64 %28, %31
  store i64 %32, ptr %9, align 8, !tbaa !26
  call void @llvm.lifetime.start.p0(i64 8, ptr %10) #3
  %33 = load i64, ptr %8, align 8, !tbaa !26
  %34 = getelementptr inbounds nuw %struct.TGAImage, ptr %16, i32 0, i32 2
  %35 = load i8, ptr %34, align 8, !tbaa !20
  %36 = zext i8 %35 to i64
  %37 = mul i64 %33, %36
  store i64 %37, ptr %10, align 8, !tbaa !26
  call void @llvm.lifetime.start.p0(i64 1, ptr %11) #3
  store i8 1, ptr %11, align 1, !tbaa !21
  call void @llvm.lifetime.start.p0(i64 1, ptr %12) #3
  store i8 1, ptr %12, align 1, !tbaa !41
  br label %38

38:                                               ; preds = %125, %27
  %39 = load i64, ptr %8, align 8, !tbaa !26
  %40 = load i8, ptr %11, align 1, !tbaa !21
  %41 = zext i8 %40 to i64
  %42 = add i64 %39, %41
  %43 = load i64, ptr %7, align 8, !tbaa !26
  %44 = icmp ult i64 %42, %43
  br i1 %44, label %45, label %49

45:                                               ; preds = %38
  %46 = load i8, ptr %11, align 1, !tbaa !21
  %47 = zext i8 %46 to i32
  %48 = icmp slt i32 %47, 128
  br label %49

49:                                               ; preds = %45, %38
  %50 = phi i1 [ false, %38 ], [ %48, %45 ]
  br i1 %50, label %51, label %126

51:                                               ; preds = %49
  call void @llvm.lifetime.start.p0(i64 1, ptr %13) #3
  store i8 1, ptr %13, align 1, !tbaa !41
  call void @llvm.lifetime.start.p0(i64 4, ptr %14) #3
  store i32 0, ptr %14, align 4, !tbaa !10
  br label %52

52:                                               ; preds = %87, %51
  %53 = load i8, ptr %13, align 1, !tbaa !41, !range !126, !noundef !127
  %54 = trunc i8 %53 to i1
  br i1 %54, label %55, label %61

55:                                               ; preds = %52
  %56 = load i32, ptr %14, align 4, !tbaa !10
  %57 = getelementptr inbounds nuw %struct.TGAImage, ptr %16, i32 0, i32 2
  %58 = load i8, ptr %57, align 8, !tbaa !20
  %59 = zext i8 %58 to i32
  %60 = icmp slt i32 %56, %59
  br label %61

61:                                               ; preds = %55, %52
  %62 = phi i1 [ false, %52 ], [ %60, %55 ]
  br i1 %62, label %64, label %63

63:                                               ; preds = %61
  call void @llvm.lifetime.end.p0(i64 4, ptr %14) #3
  br label %90

64:                                               ; preds = %61
  %65 = getelementptr inbounds nuw %struct.TGAImage, ptr %16, i32 0, i32 3
  %66 = load i64, ptr %10, align 8, !tbaa !26
  %67 = load i32, ptr %14, align 4, !tbaa !10
  %68 = sext i32 %67 to i64
  %69 = add i64 %66, %68
  %70 = call noundef nonnull align 1 dereferenceable(1) ptr @_ZNKSt6vectorIhSaIhEEixEm(ptr noundef nonnull align 8 dereferenceable(24) %65, i64 noundef %69) #3
  %71 = load i8, ptr %70, align 1, !tbaa !21
  %72 = zext i8 %71 to i32
  %73 = getelementptr inbounds nuw %struct.TGAImage, ptr %16, i32 0, i32 3
  %74 = load i64, ptr %10, align 8, !tbaa !26
  %75 = load i32, ptr %14, align 4, !tbaa !10
  %76 = sext i32 %75 to i64
  %77 = add i64 %74, %76
  %78 = getelementptr inbounds nuw %struct.TGAImage, ptr %16, i32 0, i32 2
  %79 = load i8, ptr %78, align 8, !tbaa !20
  %80 = zext i8 %79 to i64
  %81 = add i64 %77, %80
  %82 = call noundef nonnull align 1 dereferenceable(1) ptr @_ZNKSt6vectorIhSaIhEEixEm(ptr noundef nonnull align 8 dereferenceable(24) %73, i64 noundef %81) #3
  %83 = load i8, ptr %82, align 1, !tbaa !21
  %84 = zext i8 %83 to i32
  %85 = icmp eq i32 %72, %84
  %86 = zext i1 %85 to i8
  store i8 %86, ptr %13, align 1, !tbaa !41
  br label %87

87:                                               ; preds = %64
  %88 = load i32, ptr %14, align 4, !tbaa !10
  %89 = add nsw i32 %88, 1
  store i32 %89, ptr %14, align 4, !tbaa !10
  br label %52, !llvm.loop !130

90:                                               ; preds = %63
  %91 = getelementptr inbounds nuw %struct.TGAImage, ptr %16, i32 0, i32 2
  %92 = load i8, ptr %91, align 8, !tbaa !20
  %93 = zext i8 %92 to i64
  %94 = load i64, ptr %10, align 8, !tbaa !26
  %95 = add i64 %94, %93
  store i64 %95, ptr %10, align 8, !tbaa !26
  %96 = load i8, ptr %11, align 1, !tbaa !21
  %97 = zext i8 %96 to i32
  %98 = icmp eq i32 1, %97
  br i1 %98, label %99, label %104

99:                                               ; preds = %90
  %100 = load i8, ptr %13, align 1, !tbaa !41, !range !126, !noundef !127
  %101 = trunc i8 %100 to i1
  %102 = xor i1 %101, true
  %103 = zext i1 %102 to i8
  store i8 %103, ptr %12, align 1, !tbaa !41
  br label %104

104:                                              ; preds = %99, %90
  %105 = load i8, ptr %12, align 1, !tbaa !41, !range !126, !noundef !127
  %106 = trunc i8 %105 to i1
  br i1 %106, label %107, label %113

107:                                              ; preds = %104
  %108 = load i8, ptr %13, align 1, !tbaa !41, !range !126, !noundef !127
  %109 = trunc i8 %108 to i1
  br i1 %109, label %110, label %113

110:                                              ; preds = %107
  %111 = load i8, ptr %11, align 1, !tbaa !21
  %112 = add i8 %111, -1
  store i8 %112, ptr %11, align 1, !tbaa !21
  store i32 5, ptr %15, align 4
  br label %123

113:                                              ; preds = %107, %104
  %114 = load i8, ptr %12, align 1, !tbaa !41, !range !126, !noundef !127
  %115 = trunc i8 %114 to i1
  br i1 %115, label %120, label %116

116:                                              ; preds = %113
  %117 = load i8, ptr %13, align 1, !tbaa !41, !range !126, !noundef !127
  %118 = trunc i8 %117 to i1
  br i1 %118, label %120, label %119

119:                                              ; preds = %116
  store i32 5, ptr %15, align 4
  br label %123

120:                                              ; preds = %116, %113
  %121 = load i8, ptr %11, align 1, !tbaa !21
  %122 = add i8 %121, 1
  store i8 %122, ptr %11, align 1, !tbaa !21
  store i32 0, ptr %15, align 4
  br label %123

123:                                              ; preds = %120, %119, %110
  call void @llvm.lifetime.end.p0(i64 1, ptr %13) #3
  %124 = load i32, ptr %15, align 4
  switch i32 %124, label %190 [
    i32 0, label %125
    i32 5, label %126
  ]

125:                                              ; preds = %123
  br label %38, !llvm.loop !131

126:                                              ; preds = %123, %49
  %127 = load i8, ptr %11, align 1, !tbaa !21
  %128 = zext i8 %127 to i64
  %129 = load i64, ptr %8, align 8, !tbaa !26
  %130 = add i64 %129, %128
  store i64 %130, ptr %8, align 8, !tbaa !26
  %131 = load ptr, ptr %5, align 8, !tbaa !128
  %132 = load i8, ptr %12, align 1, !tbaa !41, !range !126, !noundef !127
  %133 = trunc i8 %132 to i1
  br i1 %133, label %134, label %138

134:                                              ; preds = %126
  %135 = load i8, ptr %11, align 1, !tbaa !21
  %136 = zext i8 %135 to i32
  %137 = sub nsw i32 %136, 1
  br label %142

138:                                              ; preds = %126
  %139 = load i8, ptr %11, align 1, !tbaa !21
  %140 = zext i8 %139 to i32
  %141 = add nsw i32 %140, 127
  br label %142

142:                                              ; preds = %138, %134
  %143 = phi i32 [ %137, %134 ], [ %141, %138 ]
  %144 = trunc i32 %143 to i8
  %145 = call noundef nonnull align 8 dereferenceable(8) ptr @_ZNSo3putEc(ptr noundef nonnull align 8 dereferenceable(8) %131, i8 noundef signext %144)
  %146 = load ptr, ptr %5, align 8, !tbaa !128
  %147 = load ptr, ptr %146, align 8, !tbaa !48
  %148 = getelementptr i8, ptr %147, i64 -24
  %149 = load i64, ptr %148, align 8
  %150 = getelementptr inbounds i8, ptr %146, i64 %149
  %151 = call noundef zeroext i1 @_ZNKSt9basic_iosIcSt11char_traitsIcEE4goodEv(ptr noundef nonnull align 8 dereferenceable(264) %150)
  br i1 %151, label %153, label %152

152:                                              ; preds = %142
  store i1 false, ptr %3, align 1
  store i32 1, ptr %15, align 4
  br label %184

153:                                              ; preds = %142
  %154 = load ptr, ptr %5, align 8, !tbaa !128
  %155 = getelementptr inbounds nuw %struct.TGAImage, ptr %16, i32 0, i32 3
  %156 = call noundef ptr @_ZNKSt6vectorIhSaIhEE4dataEv(ptr noundef nonnull align 8 dereferenceable(24) %155) #3
  %157 = load i64, ptr %9, align 8, !tbaa !26
  %158 = getelementptr inbounds nuw i8, ptr %156, i64 %157
  %159 = load i8, ptr %12, align 1, !tbaa !41, !range !126, !noundef !127
  %160 = trunc i8 %159 to i1
  br i1 %160, label %161, label %168

161:                                              ; preds = %153
  %162 = load i8, ptr %11, align 1, !tbaa !21
  %163 = zext i8 %162 to i32
  %164 = getelementptr inbounds nuw %struct.TGAImage, ptr %16, i32 0, i32 2
  %165 = load i8, ptr %164, align 8, !tbaa !20
  %166 = zext i8 %165 to i32
  %167 = mul nsw i32 %163, %166
  br label %172

168:                                              ; preds = %153
  %169 = getelementptr inbounds nuw %struct.TGAImage, ptr %16, i32 0, i32 2
  %170 = load i8, ptr %169, align 8, !tbaa !20
  %171 = zext i8 %170 to i32
  br label %172

172:                                              ; preds = %168, %161
  %173 = phi i32 [ %167, %161 ], [ %171, %168 ]
  %174 = sext i32 %173 to i64
  %175 = call noundef nonnull align 8 dereferenceable(8) ptr @_ZNSo5writeEPKcl(ptr noundef nonnull align 8 dereferenceable(8) %154, ptr noundef %158, i64 noundef %174)
  %176 = load ptr, ptr %5, align 8, !tbaa !128
  %177 = load ptr, ptr %176, align 8, !tbaa !48
  %178 = getelementptr i8, ptr %177, i64 -24
  %179 = load i64, ptr %178, align 8
  %180 = getelementptr inbounds i8, ptr %176, i64 %179
  %181 = call noundef zeroext i1 @_ZNKSt9basic_iosIcSt11char_traitsIcEE4goodEv(ptr noundef nonnull align 8 dereferenceable(264) %180)
  br i1 %181, label %183, label %182

182:                                              ; preds = %172
  store i1 false, ptr %3, align 1
  store i32 1, ptr %15, align 4
  br label %184

183:                                              ; preds = %172
  store i32 0, ptr %15, align 4
  br label %184

184:                                              ; preds = %183, %182, %152
  call void @llvm.lifetime.end.p0(i64 1, ptr %12) #3
  call void @llvm.lifetime.end.p0(i64 1, ptr %11) #3
  call void @llvm.lifetime.end.p0(i64 8, ptr %10) #3
  call void @llvm.lifetime.end.p0(i64 8, ptr %9) #3
  %185 = load i32, ptr %15, align 4
  switch i32 %185, label %188 [
    i32 0, label %186
  ]

186:                                              ; preds = %184
  br label %23, !llvm.loop !132

187:                                              ; preds = %23
  store i1 true, ptr %3, align 1
  store i32 1, ptr %15, align 4
  br label %188

188:                                              ; preds = %187, %184
  call void @llvm.lifetime.end.p0(i64 8, ptr %8) #3
  call void @llvm.lifetime.end.p0(i64 8, ptr %7) #3
  call void @llvm.lifetime.end.p0(i64 1, ptr %6) #3
  %189 = load i1, ptr %3, align 1
  ret i1 %189

190:                                              ; preds = %123
  unreachable
}